target datalayout = "e-m:e-p270:32:32-p271:32:32-p272:64:64-i64:64-i128:128-f80:128-n8:16:32:64-S128"
target triple = "x86_64-pc-linux-gnu"

@_ZN9Arguments11_abort_hookE = external global ptr, align 8

; Function Attrs: mustprogress nounwind uwtable
define linkonce_odr hidden noundef ptr @_ZN9Arguments10abort_hookEv() #1 comdat align 2 {
  %1 = load ptr, ptr @_ZN9Arguments11_abort_hookE, align 8
  ret ptr %1
}

; Function Attrs: mustprogress nounwind uwtable
define hidden void @_ZN2os8shutdownEv() #1 align 2 {
  %1 = alloca ptr, align 8
  call void @_Z15perfMemory_exitv()
  call void @_ZN14AttachListener5abortEv()
  call void @_Z13ostream_abortv()
  %2 = call noundef ptr @_ZN9Arguments10abort_hookEv()
  store ptr %2, ptr %1, align 8
  %3 = load ptr, ptr %1, align 8
  %4 = icmp ne ptr %3, null
  br i1 %4, label %5, label %7

5:                                                ; preds = %0
  %6 = load ptr, ptr %1, align 8
  call void %6()
  br label %7

7:                                                ; preds = %5, %0
  ret void
}