; Function Attrs: mustprogress nounwind uwtable
define hidden void @_ZN2os8shutdownEv() local_unnamed_addr #1 align 2 {
  tail call void @_Z15perfMemory_exitv() #25
  tail call void @_ZN14AttachListener5abortEv() #25
  tail call void @_Z13ostream_abortv() #25
  %1 = load ptr, ptr @_ZN9Arguments11_abort_hookE, align 8
  %.not = icmp eq ptr %1, null
  br i1 %.not, label %3, label %2

2:                                                ; preds = %0
  tail call void %1() #25
  br label %3

3:                                                ; preds = %2, %0
  ret void
}